
out:     file format elf32-littleriscv


Disassembly of section .text:

00000000 <vertex_name-0x14>:
   0:	00014117          	auipc	sp,0x14
   4:	00010113          	mv	sp,sp
   8:	4a00006f          	j	4a8 <main>
	...

00000014 <vertex_name>:
  14:	fd010113          	addi	sp,sp,-48 # 13fd0 <main+0x13b28>
  18:	02812623          	sw	s0,44(sp)
  1c:	03010413          	addi	s0,sp,48
  20:	fca42e23          	sw	a0,-36(s0)
  24:	04100793          	li	a5,65
  28:	fef42623          	sw	a5,-20(s0)
  2c:	fec42783          	lw	a5,-20(s0)
  30:	0ff7f713          	andi	a4,a5,255
  34:	fdc42783          	lw	a5,-36(s0)
  38:	0ff7f793          	andi	a5,a5,255
  3c:	00f707b3          	add	a5,a4,a5
  40:	0ff7f793          	andi	a5,a5,255
  44:	00078513          	mv	a0,a5
  48:	02c12403          	lw	s0,44(sp)
  4c:	03010113          	addi	sp,sp,48
  50:	00008067          	ret

00000054 <dfs>:
  54:	fe010113          	addi	sp,sp,-32
  58:	00112e23          	sw	ra,28(sp)
  5c:	00812c23          	sw	s0,24(sp)
  60:	02010413          	addi	s0,sp,32
  64:	fe042623          	sw	zero,-20(s0)
  68:	0280006f          	j	90 <dfs+0x3c>
  6c:	000147b7          	lui	a5,0x14
  70:	1d078713          	addi	a4,a5,464 # 141d0 <color>
  74:	fec42783          	lw	a5,-20(s0)
  78:	00279793          	slli	a5,a5,0x2
  7c:	00f707b3          	add	a5,a4,a5
  80:	0007a023          	sw	zero,0(a5)
  84:	fec42783          	lw	a5,-20(s0)
  88:	00178793          	addi	a5,a5,1
  8c:	fef42623          	sw	a5,-20(s0)
  90:	fec42703          	lw	a4,-20(s0)
  94:	00900793          	li	a5,9
  98:	fce7dae3          	bge	a5,a4,6c <dfs+0x18>
  9c:	00000513          	li	a0,0
  a0:	060000ef          	jal	ra,100 <dfs_search>
  a4:	fe042623          	sw	zero,-20(s0)
  a8:	0340006f          	j	dc <dfs+0x88>
  ac:	000147b7          	lui	a5,0x14
  b0:	1d078713          	addi	a4,a5,464 # 141d0 <color>
  b4:	fec42783          	lw	a5,-20(s0)
  b8:	00279793          	slli	a5,a5,0x2
  bc:	00f707b3          	add	a5,a4,a5
  c0:	0007a783          	lw	a5,0(a5)
  c4:	00079663          	bnez	a5,d0 <dfs+0x7c>
  c8:	fec42503          	lw	a0,-20(s0)
  cc:	034000ef          	jal	ra,100 <dfs_search>
  d0:	fec42783          	lw	a5,-20(s0)
  d4:	00178793          	addi	a5,a5,1
  d8:	fef42623          	sw	a5,-20(s0)
  dc:	fec42703          	lw	a4,-20(s0)
  e0:	00900793          	li	a5,9
  e4:	fce7d4e3          	bge	a5,a4,ac <dfs+0x58>
  e8:	00000013          	nop
  ec:	00000013          	nop
  f0:	01c12083          	lw	ra,28(sp)
  f4:	01812403          	lw	s0,24(sp)
  f8:	02010113          	addi	sp,sp,32
  fc:	00008067          	ret

00000100 <dfs_search>:
 100:	fd010113          	addi	sp,sp,-48
 104:	02112623          	sw	ra,44(sp)
 108:	02812423          	sw	s0,40(sp)
 10c:	03010413          	addi	s0,sp,48
 110:	fca42e23          	sw	a0,-36(s0)
 114:	000147b7          	lui	a5,0x14
 118:	1d078713          	addi	a4,a5,464 # 141d0 <color>
 11c:	fdc42783          	lw	a5,-36(s0)
 120:	00279793          	slli	a5,a5,0x2
 124:	00f707b3          	add	a5,a4,a5
 128:	00100713          	li	a4,1
 12c:	00e7a023          	sw	a4,0(a5)
 130:	fe042623          	sw	zero,-20(s0)
 134:	0680006f          	j	19c <dfs_search+0x9c>
 138:	000147b7          	lui	a5,0x14
 13c:	04078693          	addi	a3,a5,64 # 14040 <adj_graph>
 140:	fdc42703          	lw	a4,-36(s0)
 144:	00070793          	mv	a5,a4
 148:	00279793          	slli	a5,a5,0x2
 14c:	00e787b3          	add	a5,a5,a4
 150:	00179793          	slli	a5,a5,0x1
 154:	fec42703          	lw	a4,-20(s0)
 158:	00e787b3          	add	a5,a5,a4
 15c:	00279793          	slli	a5,a5,0x2
 160:	00f687b3          	add	a5,a3,a5
 164:	0007a783          	lw	a5,0(a5)
 168:	02078463          	beqz	a5,190 <dfs_search+0x90>
 16c:	000147b7          	lui	a5,0x14
 170:	1d078713          	addi	a4,a5,464 # 141d0 <color>
 174:	fec42783          	lw	a5,-20(s0)
 178:	00279793          	slli	a5,a5,0x2
 17c:	00f707b3          	add	a5,a4,a5
 180:	0007a783          	lw	a5,0(a5)
 184:	00079663          	bnez	a5,190 <dfs_search+0x90>
 188:	fec42503          	lw	a0,-20(s0)
 18c:	f75ff0ef          	jal	ra,100 <dfs_search>
 190:	fec42783          	lw	a5,-20(s0)
 194:	00178793          	addi	a5,a5,1
 198:	fef42623          	sw	a5,-20(s0)
 19c:	fec42703          	lw	a4,-20(s0)
 1a0:	00900793          	li	a5,9
 1a4:	f8e7dae3          	bge	a5,a4,138 <dfs_search+0x38>
 1a8:	000147b7          	lui	a5,0x14
 1ac:	1d078713          	addi	a4,a5,464 # 141d0 <color>
 1b0:	fdc42783          	lw	a5,-36(s0)
 1b4:	00279793          	slli	a5,a5,0x2
 1b8:	00f707b3          	add	a5,a4,a5
 1bc:	00200713          	li	a4,2
 1c0:	00e7a023          	sw	a4,0(a5)
 1c4:	00000013          	nop
 1c8:	02c12083          	lw	ra,44(sp)
 1cc:	02812403          	lw	s0,40(sp)
 1d0:	03010113          	addi	sp,sp,48
 1d4:	00008067          	ret

000001d8 <bfs>:
 1d8:	fe010113          	addi	sp,sp,-32
 1dc:	00112e23          	sw	ra,28(sp)
 1e0:	00812c23          	sw	s0,24(sp)
 1e4:	02010413          	addi	s0,sp,32
 1e8:	fe042623          	sw	zero,-20(s0)
 1ec:	0280006f          	j	214 <bfs+0x3c>
 1f0:	000147b7          	lui	a5,0x14
 1f4:	1d078713          	addi	a4,a5,464 # 141d0 <color>
 1f8:	fec42783          	lw	a5,-20(s0)
 1fc:	00279793          	slli	a5,a5,0x2
 200:	00f707b3          	add	a5,a4,a5
 204:	0007a023          	sw	zero,0(a5)
 208:	fec42783          	lw	a5,-20(s0)
 20c:	00178793          	addi	a5,a5,1
 210:	fef42623          	sw	a5,-20(s0)
 214:	fec42703          	lw	a4,-20(s0)
 218:	00900793          	li	a5,9
 21c:	fce7dae3          	bge	a5,a4,1f0 <bfs+0x18>
 220:	00000513          	li	a0,0
 224:	060000ef          	jal	ra,284 <bfs_search>
 228:	fe042623          	sw	zero,-20(s0)
 22c:	0340006f          	j	260 <bfs+0x88>
 230:	000147b7          	lui	a5,0x14
 234:	1d078713          	addi	a4,a5,464 # 141d0 <color>
 238:	fec42783          	lw	a5,-20(s0)
 23c:	00279793          	slli	a5,a5,0x2
 240:	00f707b3          	add	a5,a4,a5
 244:	0007a783          	lw	a5,0(a5)
 248:	00079663          	bnez	a5,254 <bfs+0x7c>
 24c:	fec42503          	lw	a0,-20(s0)
 250:	034000ef          	jal	ra,284 <bfs_search>
 254:	fec42783          	lw	a5,-20(s0)
 258:	00178793          	addi	a5,a5,1
 25c:	fef42623          	sw	a5,-20(s0)
 260:	fec42703          	lw	a4,-20(s0)
 264:	00900793          	li	a5,9
 268:	fce7d4e3          	bge	a5,a4,230 <bfs+0x58>
 26c:	00000013          	nop
 270:	00000013          	nop
 274:	01c12083          	lw	ra,28(sp)
 278:	01812403          	lw	s0,24(sp)
 27c:	02010113          	addi	sp,sp,32
 280:	00008067          	ret

00000284 <bfs_search>:
 284:	fd010113          	addi	sp,sp,-48
 288:	02112623          	sw	ra,44(sp)
 28c:	02812423          	sw	s0,40(sp)
 290:	03010413          	addi	s0,sp,48
 294:	fca42e23          	sw	a0,-36(s0)
 298:	fdc42503          	lw	a0,-36(s0)
 29c:	128000ef          	jal	ra,3c4 <insert>
 2a0:	000147b7          	lui	a5,0x14
 2a4:	1d078713          	addi	a4,a5,464 # 141d0 <color>
 2a8:	fdc42783          	lw	a5,-36(s0)
 2ac:	00279793          	slli	a5,a5,0x2
 2b0:	00f707b3          	add	a5,a4,a5
 2b4:	00100713          	li	a4,1
 2b8:	00e7a023          	sw	a4,0(a5)
 2bc:	0d40006f          	j	390 <bfs_search+0x10c>
 2c0:	000147b7          	lui	a5,0x14
 2c4:	0007a783          	lw	a5,0(a5) # 14000 <rear>
 2c8:	00014737          	lui	a4,0x14
 2cc:	00870713          	addi	a4,a4,8 # 14008 <queue>
 2d0:	00279793          	slli	a5,a5,0x2
 2d4:	00f707b3          	add	a5,a4,a5
 2d8:	0007a783          	lw	a5,0(a5)
 2dc:	fef42423          	sw	a5,-24(s0)
 2e0:	fe042623          	sw	zero,-20(s0)
 2e4:	0a00006f          	j	384 <bfs_search+0x100>
 2e8:	000147b7          	lui	a5,0x14
 2ec:	04078693          	addi	a3,a5,64 # 14040 <adj_graph>
 2f0:	fe842703          	lw	a4,-24(s0)
 2f4:	00070793          	mv	a5,a4
 2f8:	00279793          	slli	a5,a5,0x2
 2fc:	00e787b3          	add	a5,a5,a4
 300:	00179793          	slli	a5,a5,0x1
 304:	fec42703          	lw	a4,-20(s0)
 308:	00e787b3          	add	a5,a5,a4
 30c:	00279793          	slli	a5,a5,0x2
 310:	00f687b3          	add	a5,a3,a5
 314:	0007a783          	lw	a5,0(a5)
 318:	04078263          	beqz	a5,35c <bfs_search+0xd8>
 31c:	000147b7          	lui	a5,0x14
 320:	1d078713          	addi	a4,a5,464 # 141d0 <color>
 324:	fec42783          	lw	a5,-20(s0)
 328:	00279793          	slli	a5,a5,0x2
 32c:	00f707b3          	add	a5,a4,a5
 330:	0007a783          	lw	a5,0(a5)
 334:	02079463          	bnez	a5,35c <bfs_search+0xd8>
 338:	000147b7          	lui	a5,0x14
 33c:	1d078713          	addi	a4,a5,464 # 141d0 <color>
 340:	fec42783          	lw	a5,-20(s0)
 344:	00279793          	slli	a5,a5,0x2
 348:	00f707b3          	add	a5,a4,a5
 34c:	00100713          	li	a4,1
 350:	00e7a023          	sw	a4,0(a5)
 354:	fec42503          	lw	a0,-20(s0)
 358:	06c000ef          	jal	ra,3c4 <insert>
 35c:	000147b7          	lui	a5,0x14
 360:	1d078713          	addi	a4,a5,464 # 141d0 <color>
 364:	fe842783          	lw	a5,-24(s0)
 368:	00279793          	slli	a5,a5,0x2
 36c:	00f707b3          	add	a5,a4,a5
 370:	00200713          	li	a4,2
 374:	00e7a023          	sw	a4,0(a5)
 378:	fec42783          	lw	a5,-20(s0)
 37c:	00178793          	addi	a5,a5,1
 380:	fef42623          	sw	a5,-20(s0)
 384:	fec42703          	lw	a4,-20(s0)
 388:	00900793          	li	a5,9
 38c:	f4e7dee3          	bge	a5,a4,2e8 <bfs_search+0x64>
 390:	000147b7          	lui	a5,0x14
 394:	0387a703          	lw	a4,56(a5) # 14038 <front>
 398:	fff00793          	li	a5,-1
 39c:	00f71a63          	bne	a4,a5,3b0 <bfs_search+0x12c>
 3a0:	000147b7          	lui	a5,0x14
 3a4:	0007a703          	lw	a4,0(a5) # 14000 <rear>
 3a8:	fff00793          	li	a5,-1
 3ac:	f0f70ae3          	beq	a4,a5,2c0 <bfs_search+0x3c>
 3b0:	00000013          	nop
 3b4:	02c12083          	lw	ra,44(sp)
 3b8:	02812403          	lw	s0,40(sp)
 3bc:	03010113          	addi	sp,sp,48
 3c0:	00008067          	ret

000003c4 <insert>:
 3c4:	fd010113          	addi	sp,sp,-48
 3c8:	02812623          	sw	s0,44(sp)
 3cc:	03010413          	addi	s0,sp,48
 3d0:	fca42e23          	sw	a0,-36(s0)
 3d4:	000147b7          	lui	a5,0x14
 3d8:	0007a703          	lw	a4,0(a5) # 14000 <rear>
 3dc:	00b00793          	li	a5,11
 3e0:	04f70e63          	beq	a4,a5,43c <insert+0x78>
 3e4:	000147b7          	lui	a5,0x14
 3e8:	0387a703          	lw	a4,56(a5) # 14038 <front>
 3ec:	fff00793          	li	a5,-1
 3f0:	04f71863          	bne	a4,a5,440 <insert+0x7c>
 3f4:	000147b7          	lui	a5,0x14
 3f8:	0207ac23          	sw	zero,56(a5) # 14038 <front>
 3fc:	fdc42783          	lw	a5,-36(s0)
 400:	fef42623          	sw	a5,-20(s0)
 404:	000147b7          	lui	a5,0x14
 408:	0007a783          	lw	a5,0(a5) # 14000 <rear>
 40c:	00178713          	addi	a4,a5,1
 410:	000147b7          	lui	a5,0x14
 414:	00e7a023          	sw	a4,0(a5) # 14000 <rear>
 418:	000147b7          	lui	a5,0x14
 41c:	0007a783          	lw	a5,0(a5) # 14000 <rear>
 420:	00014737          	lui	a4,0x14
 424:	00870713          	addi	a4,a4,8 # 14008 <queue>
 428:	00279793          	slli	a5,a5,0x2
 42c:	00f707b3          	add	a5,a4,a5
 430:	fec42703          	lw	a4,-20(s0)
 434:	00e7a023          	sw	a4,0(a5)
 438:	0080006f          	j	440 <insert+0x7c>
 43c:	00000013          	nop
 440:	02c12403          	lw	s0,44(sp)
 444:	03010113          	addi	sp,sp,48
 448:	00008067          	ret

0000044c <delet>:
 44c:	fe010113          	addi	sp,sp,-32
 450:	00812e23          	sw	s0,28(sp)
 454:	02010413          	addi	s0,sp,32
 458:	fea42623          	sw	a0,-20(s0)
 45c:	000147b7          	lui	a5,0x14
 460:	0387a703          	lw	a4,56(a5) # 14038 <front>
 464:	fff00793          	li	a5,-1
 468:	02f70863          	beq	a4,a5,498 <delet+0x4c>
 46c:	000147b7          	lui	a5,0x14
 470:	0387a703          	lw	a4,56(a5) # 14038 <front>
 474:	000147b7          	lui	a5,0x14
 478:	0007a783          	lw	a5,0(a5) # 14000 <rear>
 47c:	00e7ce63          	blt	a5,a4,498 <delet+0x4c>
 480:	000147b7          	lui	a5,0x14
 484:	0387a783          	lw	a5,56(a5) # 14038 <front>
 488:	00178713          	addi	a4,a5,1
 48c:	000147b7          	lui	a5,0x14
 490:	02e7ac23          	sw	a4,56(a5) # 14038 <front>
 494:	0080006f          	j	49c <delet+0x50>
 498:	00000013          	nop
 49c:	01c12403          	lw	s0,28(sp)
 4a0:	02010113          	addi	sp,sp,32
 4a4:	00008067          	ret

000004a8 <main>:
 4a8:	fe010113          	addi	sp,sp,-32
 4ac:	00112e23          	sw	ra,28(sp)
 4b0:	00812c23          	sw	s0,24(sp)
 4b4:	02010413          	addi	s0,sp,32
 4b8:	000147b7          	lui	a5,0x14
 4bc:	fff00713          	li	a4,-1
 4c0:	02e7ac23          	sw	a4,56(a5) # 14038 <front>
 4c4:	000147b7          	lui	a5,0x14
 4c8:	fff00713          	li	a4,-1
 4cc:	00e7a023          	sw	a4,0(a5) # 14000 <rear>
 4d0:	000147b7          	lui	a5,0x14
 4d4:	0207ae23          	sw	zero,60(a5) # 1403c <i>
 4d8:	0800006f          	j	558 <main+0xb0>
 4dc:	000147b7          	lui	a5,0x14
 4e0:	0007a223          	sw	zero,4(a5) # 14004 <j>
 4e4:	0500006f          	j	534 <main+0x8c>
 4e8:	000147b7          	lui	a5,0x14
 4ec:	03c7a703          	lw	a4,60(a5) # 1403c <i>
 4f0:	000147b7          	lui	a5,0x14
 4f4:	0047a603          	lw	a2,4(a5) # 14004 <j>
 4f8:	000147b7          	lui	a5,0x14
 4fc:	04078693          	addi	a3,a5,64 # 14040 <adj_graph>
 500:	00070793          	mv	a5,a4
 504:	00279793          	slli	a5,a5,0x2
 508:	00e787b3          	add	a5,a5,a4
 50c:	00179793          	slli	a5,a5,0x1
 510:	00c787b3          	add	a5,a5,a2
 514:	00279793          	slli	a5,a5,0x2
 518:	00f687b3          	add	a5,a3,a5
 51c:	0007a023          	sw	zero,0(a5)
 520:	000147b7          	lui	a5,0x14
 524:	0047a783          	lw	a5,4(a5) # 14004 <j>
 528:	00178713          	addi	a4,a5,1
 52c:	000147b7          	lui	a5,0x14
 530:	00e7a223          	sw	a4,4(a5) # 14004 <j>
 534:	000147b7          	lui	a5,0x14
 538:	0047a703          	lw	a4,4(a5) # 14004 <j>
 53c:	00900793          	li	a5,9
 540:	fae7d4e3          	bge	a5,a4,4e8 <main+0x40>
 544:	000147b7          	lui	a5,0x14
 548:	03c7a783          	lw	a5,60(a5) # 1403c <i>
 54c:	00178713          	addi	a4,a5,1
 550:	000147b7          	lui	a5,0x14
 554:	02e7ae23          	sw	a4,60(a5) # 1403c <i>
 558:	000147b7          	lui	a5,0x14
 55c:	03c7a703          	lw	a4,60(a5) # 1403c <i>
 560:	00900793          	li	a5,9
 564:	f6e7dce3          	bge	a5,a4,4dc <main+0x34>
 568:	00300793          	li	a5,3
 56c:	fef42623          	sw	a5,-20(s0)
 570:	00300793          	li	a5,3
 574:	fef42423          	sw	a5,-24(s0)
 578:	fec42703          	lw	a4,-20(s0)
 57c:	fe842783          	lw	a5,-24(s0)
 580:	02f74733          	div	a4,a4,a5
 584:	000147b7          	lui	a5,0x14
 588:	04078793          	addi	a5,a5,64 # 14040 <adj_graph>
 58c:	00e7a223          	sw	a4,4(a5)
 590:	fec42703          	lw	a4,-20(s0)
 594:	fe842783          	lw	a5,-24(s0)
 598:	02f74733          	div	a4,a4,a5
 59c:	000147b7          	lui	a5,0x14
 5a0:	04078793          	addi	a5,a5,64 # 14040 <adj_graph>
 5a4:	02e7a223          	sw	a4,36(a5)
 5a8:	fec42703          	lw	a4,-20(s0)
 5ac:	fe842783          	lw	a5,-24(s0)
 5b0:	02f74733          	div	a4,a4,a5
 5b4:	000147b7          	lui	a5,0x14
 5b8:	04078793          	addi	a5,a5,64 # 14040 <adj_graph>
 5bc:	02e7a823          	sw	a4,48(a5)
 5c0:	fec42703          	lw	a4,-20(s0)
 5c4:	fe842783          	lw	a5,-24(s0)
 5c8:	02f74733          	div	a4,a4,a5
 5cc:	000147b7          	lui	a5,0x14
 5d0:	04078793          	addi	a5,a5,64 # 14040 <adj_graph>
 5d4:	02e7aa23          	sw	a4,52(a5)
 5d8:	000147b7          	lui	a5,0x14
 5dc:	04078793          	addi	a5,a5,64 # 14040 <adj_graph>
 5e0:	00100713          	li	a4,1
 5e4:	08e7a623          	sw	a4,140(a5)
 5e8:	000147b7          	lui	a5,0x14
 5ec:	04078793          	addi	a5,a5,64 # 14040 <adj_graph>
 5f0:	00100713          	li	a4,1
 5f4:	08e7a423          	sw	a4,136(a5)
 5f8:	000147b7          	lui	a5,0x14
 5fc:	04078793          	addi	a5,a5,64 # 14040 <adj_graph>
 600:	00100713          	li	a4,1
 604:	0ae7ac23          	sw	a4,184(a5)
 608:	000147b7          	lui	a5,0x14
 60c:	04078793          	addi	a5,a5,64 # 14040 <adj_graph>
 610:	00100713          	li	a4,1
 614:	0ae7aa23          	sw	a4,180(a5)
 618:	000147b7          	lui	a5,0x14
 61c:	04078793          	addi	a5,a5,64 # 14040 <adj_graph>
 620:	00100713          	li	a4,1
 624:	0ee7a023          	sw	a4,224(a5)
 628:	000147b7          	lui	a5,0x14
 62c:	04078793          	addi	a5,a5,64 # 14040 <adj_graph>
 630:	00100713          	li	a4,1
 634:	0ee7a223          	sw	a4,228(a5)
 638:	000147b7          	lui	a5,0x14
 63c:	04078793          	addi	a5,a5,64 # 14040 <adj_graph>
 640:	00100713          	li	a4,1
 644:	0ee7ac23          	sw	a4,248(a5)
 648:	000147b7          	lui	a5,0x14
 64c:	04078793          	addi	a5,a5,64 # 14040 <adj_graph>
 650:	00100713          	li	a4,1
 654:	0ee7ae23          	sw	a4,252(a5)
 658:	000147b7          	lui	a5,0x14
 65c:	04078793          	addi	a5,a5,64 # 14040 <adj_graph>
 660:	00100713          	li	a4,1
 664:	12e7a623          	sw	a4,300(a5)
 668:	000147b7          	lui	a5,0x14
 66c:	04078793          	addi	a5,a5,64 # 14040 <adj_graph>
 670:	00100713          	li	a4,1
 674:	12e7ae23          	sw	a4,316(a5)
 678:	000147b7          	lui	a5,0x14
 67c:	04078793          	addi	a5,a5,64 # 14040 <adj_graph>
 680:	00100713          	li	a4,1
 684:	14e7ae23          	sw	a4,348(a5)
 688:	000147b7          	lui	a5,0x14
 68c:	04078793          	addi	a5,a5,64 # 14040 <adj_graph>
 690:	00100713          	li	a4,1
 694:	14e7a223          	sw	a4,324(a5)
 698:	000147b7          	lui	a5,0x14
 69c:	04078793          	addi	a5,a5,64 # 14040 <adj_graph>
 6a0:	00100713          	li	a4,1
 6a4:	16e7ac23          	sw	a4,376(a5)
 6a8:	000147b7          	lui	a5,0x14
 6ac:	04078793          	addi	a5,a5,64 # 14040 <adj_graph>
 6b0:	00100713          	li	a4,1
 6b4:	16e7aa23          	sw	a4,372(a5)
 6b8:	99dff0ef          	jal	ra,54 <dfs>
 6bc:	00000793          	li	a5,0
 6c0:	00078513          	mv	a0,a5
 6c4:	01c12083          	lw	ra,28(sp)
 6c8:	01812403          	lw	s0,24(sp)
 6cc:	02010113          	addi	sp,sp,32
 6d0:	00008067          	ret
